; Function Attrs: mustprogress uwtable
define void @_ZN4LIEF2PE19ResourceStringTableC2Ev(ptr noundef nonnull align 8 dereferenceable(42) %0) unnamed_addr #0 align 2 personality ptr @__gxx_personality_v0 {
  tail call void @_ZN4LIEF6ObjectC2Ev(ptr noundef nonnull align 8 dereferenceable(8) %0)
  store ptr getelementptr inbounds ({ [7 x ptr] }, ptr @_ZTVN4LIEF2PE19ResourceStringTableE, i64 0, i32 0, i64 2), ptr %0, align 8
  %2 = getelementptr inbounds i8, ptr %0, i64 8
  %3 = getelementptr inbounds i8, ptr %0, i64 24
  store ptr %3, ptr %2, align 8
  %4 = getelementptr inbounds i8, ptr %0, i64 16
  store i64 0, ptr %4, align 8
  store i16 0, ptr %3, align 8
  %5 = getelementptr inbounds i8, ptr %0, i64 40
  store i16 0, ptr %5, align 8
  ret void
}